target datalayout = "e-m:e-p270:32:32-p271:32:32-p272:64:64-i64:64-i128:128-f80:128-n8:16:32:64-S128"
target triple = "x86_64-pc-linux-gnu"

@stderr = external global ptr, align 8
@.str.4 = private unnamed_addr constant [60 x i8] c"libunwind: __unw_set_fpreg(cursor=%p, regNum=%d, value=%g)\0A\00", align 1
@_ZZ7logAPIsE7checked = internal global i8 0, align 1
@_ZZ7logAPIsE3log = internal global i8 0, align 1
@.str.15 = private unnamed_addr constant [21 x i8] c"LIBUNWIND_PRINT_APIS\00", align 1

; Function Attrs: mustprogress nounwind uwtable
define hidden zeroext i1 @logAPIs() #0 {
  %1 = load i8, ptr @_ZZ7logAPIsE7checked, align 1, !tbaa !19, !range !21, !noundef !22
  %2 = trunc i8 %1 to i1
  br i1 %2, label %7, label %3

3:                                                ; preds = %0
  %4 = call ptr @getenv(ptr noundef @.str.15) #9
  %5 = icmp ne ptr %4, null
  %6 = zext i1 %5 to i8
  store i8 %6, ptr @_ZZ7logAPIsE3log, align 1, !tbaa !19
  store i8 1, ptr @_ZZ7logAPIsE7checked, align 1, !tbaa !19
  br label %7

7:                                                ; preds = %3, %0
  %8 = load i8, ptr @_ZZ7logAPIsE3log, align 1, !tbaa !19, !range !21, !noundef !22
  %9 = trunc i8 %8 to i1
  ret i1 %9
}

; Function Attrs: mustprogress nounwind uwtable
define hidden i32 @__unw_set_fpreg(ptr noundef %0, i32 noundef %1, double noundef %2) #0 {
  %4 = alloca i32, align 4
  %5 = alloca ptr, align 8
  %6 = alloca i32, align 4
  %7 = alloca double, align 8
  %8 = alloca ptr, align 8
  %9 = alloca i32, align 4
  store ptr %0, ptr %5, align 8, !tbaa !6
  store i32 %1, ptr %6, align 4, !tbaa !37
  store double %2, ptr %7, align 8, !tbaa !43
  br label %10

10:                                               ; preds = %3
  %11 = call zeroext i1 @logAPIs()
  br i1 %11, label %12, label %22

12:                                               ; preds = %10
  br label %13

13:                                               ; preds = %12
  %14 = load ptr, ptr @stderr, align 8, !tbaa !13
  %15 = load ptr, ptr %5, align 8, !tbaa !6
  %16 = load i32, ptr %6, align 4, !tbaa !37
  %17 = load double, ptr %7, align 8, !tbaa !43
  %18 = call i32 (ptr, ptr, ...) @fprintf(ptr noundef %14, ptr noundef @.str.4, ptr noundef %15, i32 noundef %16, double noundef %17) #9
  %19 = load ptr, ptr @stderr, align 8, !tbaa !13
  %20 = call i32 @fflush(ptr noundef %19)
  br label %21

21:                                               ; preds = %13
  br label %22

22:                                               ; preds = %21, %10
  br label %23

23:                                               ; preds = %22
  call void @llvm.lifetime.start.p0(i64 8, ptr %8) #9
  %24 = load ptr, ptr %5, align 8, !tbaa !6
  store ptr %24, ptr %8, align 8, !tbaa !15
  %25 = load ptr, ptr %8, align 8, !tbaa !15
  %26 = load i32, ptr %6, align 4, !tbaa !37
  %27 = load ptr, ptr %25, align 8, !tbaa !17
  %28 = getelementptr inbounds ptr, ptr %27, i64 5
  %29 = load ptr, ptr %28, align 8
  %30 = call noundef zeroext i1 %29(ptr noundef nonnull align 8 dereferenceable(8) %25, i32 noundef %26)
  br i1 %30, label %31, label %38

31:                                               ; preds = %23
  %32 = load ptr, ptr %8, align 8, !tbaa !15
  %33 = load i32, ptr %6, align 4, !tbaa !37
  %34 = load double, ptr %7, align 8, !tbaa !43
  %35 = load ptr, ptr %32, align 8, !tbaa !17
  %36 = getelementptr inbounds ptr, ptr %35, i64 7
  %37 = load ptr, ptr %36, align 8
  call void %37(ptr noundef nonnull align 8 dereferenceable(8) %32, i32 noundef %33, double noundef %34)
  store i32 0, ptr %4, align 4
  store i32 1, ptr %9, align 4
  br label %39

38:                                               ; preds = %23
  store i32 -6542, ptr %4, align 4
  store i32 1, ptr %9, align 4
  br label %39

39:                                               ; preds = %38, %31
  call void @llvm.lifetime.end.p0(i64 8, ptr %8) #9
  %40 = load i32, ptr %4, align 4
  ret i32 %40
}